target datalayout = "e-m:e-p270:32:32-p271:32:32-p272:64:64-i64:64-i128:128-f80:128-n8:16:32:64-S128"
target triple = "x86_64-pc-linux-gnu"

%struct.Maj3_Man_t_ = type { i32, i32, i32, i32, i32, ptr, ptr, [32 x [32 x i32]], [32 x i32], [2 x [32 x i32]], [3 x i32], ptr }
%struct.Vec_Int_t_ = type { i32, i32, ptr }

@.str = private unnamed_addr constant [66 x i8] c"Variable map for problem with %d inputs, %d nodes and %d levels: \00", align 1
@.str.1 = private unnamed_addr constant [5 x i8] c"    \00", align 1
@.str.2 = private unnamed_addr constant [7 x i8] c"      \00", align 1
@.str.3 = private unnamed_addr constant [6 x i8] c"%3d  \00", align 1
@.str.4 = private unnamed_addr constant [2 x i8] c"\0A\00", align 1
@.str.5 = private unnamed_addr constant [6 x i8] c" %2d \00", align 1
@.str.6 = private unnamed_addr constant [8 x i8] c" %2d   \00", align 1
@.str.7 = private unnamed_addr constant [6 x i8] c"  .  \00", align 1
@.str.8 = private unnamed_addr constant [6 x i8] c"  +  \00", align 1
@.str.9 = private unnamed_addr constant [7 x i8] c"%3d%c \00", align 1
@.str.44 = private unnamed_addr constant [25 x i8] c"Vector has %d entries: {\00", align 1
@.str.45 = private unnamed_addr constant [4 x i8] c" %d\00", align 1
@.str.46 = private unnamed_addr constant [4 x i8] c" }\0A\00", align 1

; Function Attrs: nounwind uwtable
define internal i32 @Vec_IntEntry(ptr noundef %0, i32 noundef %1) #0 {
  %3 = alloca ptr, align 8
  %4 = alloca i32, align 4
  store ptr %0, ptr %3, align 8
  store i32 %1, ptr %4, align 4
  %5 = load ptr, ptr %3, align 8
  %6 = getelementptr inbounds %struct.Vec_Int_t_, ptr %5, i32 0, i32 2
  %7 = load ptr, ptr %6, align 8
  %8 = load i32, ptr %4, align 4
  %9 = sext i32 %8 to i64
  %10 = getelementptr inbounds i32, ptr %7, i64 %9
  %11 = load i32, ptr %10, align 4
  ret i32 %11
}

; Function Attrs: nounwind uwtable
define internal void @Vec_IntPrint(ptr noundef %0) #0 {
  %2 = alloca ptr, align 8
  %3 = alloca i32, align 4
  %4 = alloca i32, align 4
  store ptr %0, ptr %2, align 8
  %5 = load ptr, ptr %2, align 8
  %6 = call i32 @Vec_IntSize(ptr noundef %5)
  %7 = call i32 (ptr, ...) @printf(ptr noundef @.str.44, i32 noundef %6)
  store i32 0, ptr %3, align 4
  br label %8

8:                                                ; preds = %22, %1
  %9 = load i32, ptr %3, align 4
  %10 = load ptr, ptr %2, align 8
  %11 = call i32 @Vec_IntSize(ptr noundef %10)
  %12 = icmp slt i32 %9, %11
  br i1 %12, label %13, label %17

13:                                               ; preds = %8
  %14 = load ptr, ptr %2, align 8
  %15 = load i32, ptr %3, align 4
  %16 = call i32 @Vec_IntEntry(ptr noundef %14, i32 noundef %15)
  store i32 %16, ptr %4, align 4
  br label %17

17:                                               ; preds = %13, %8
  %18 = phi i1 [ false, %8 ], [ true, %13 ]
  br i1 %18, label %19, label %25

19:                                               ; preds = %17
  %20 = load i32, ptr %4, align 4
  %21 = call i32 (ptr, ...) @printf(ptr noundef @.str.45, i32 noundef %20)
  br label %22

22:                                               ; preds = %19
  %23 = load i32, ptr %3, align 4
  %24 = add nsw i32 %23, 1
  store i32 %24, ptr %3, align 4
  br label %8, !llvm.loop !24

25:                                               ; preds = %17
  %26 = call i32 (ptr, ...) @printf(ptr noundef @.str.46)
  ret void
}

; Function Attrs: nounwind uwtable
define internal i32 @Vec_IntSize(ptr noundef %0) #0 {
  %2 = alloca ptr, align 8
  store ptr %0, ptr %2, align 8
  %3 = load ptr, ptr %2, align 8
  %4 = getelementptr inbounds %struct.Vec_Int_t_, ptr %3, i32 0, i32 1
  %5 = load i32, ptr %4, align 4
  ret i32 %5
}

; Function Attrs: nounwind uwtable
define void @Maj3_ManVarMapPrint(ptr noundef %0) #0 {
  %2 = alloca ptr, align 8
  %3 = alloca i32, align 4
  %4 = alloca i32, align 4
  %5 = alloca [32 x i32], align 16
  %6 = alloca [32 x i32], align 16
  store ptr %0, ptr %2, align 8
  %7 = load ptr, ptr %2, align 8
  %8 = getelementptr inbounds %struct.Maj3_Man_t_, ptr %7, i32 0, i32 6
  %9 = load ptr, ptr %8, align 8
  %10 = getelementptr inbounds [32 x i32], ptr %5, i64 0, i64 0
  %11 = getelementptr inbounds [32 x i32], ptr %6, i64 0, i64 0
  %12 = load ptr, ptr %2, align 8
  %13 = getelementptr inbounds %struct.Maj3_Man_t_, ptr %12, i32 0, i32 0
  %14 = load i32, ptr %13, align 8
  %15 = load ptr, ptr %2, align 8
  %16 = getelementptr inbounds %struct.Maj3_Man_t_, ptr %15, i32 0, i32 2
  %17 = load i32, ptr %16, align 8
  call void @Maj3_ManFirstAndLevel(ptr noundef %9, ptr noundef %10, ptr noundef %11, i32 noundef %14, i32 noundef %17)
  %18 = load ptr, ptr %2, align 8
  %19 = getelementptr inbounds %struct.Maj3_Man_t_, ptr %18, i32 0, i32 0
  %20 = load i32, ptr %19, align 8
  %21 = load ptr, ptr %2, align 8
  %22 = getelementptr inbounds %struct.Maj3_Man_t_, ptr %21, i32 0, i32 1
  %23 = load i32, ptr %22, align 4
  %24 = load ptr, ptr %2, align 8
  %25 = getelementptr inbounds %struct.Maj3_Man_t_, ptr %24, i32 0, i32 6
  %26 = load ptr, ptr %25, align 8
  %27 = call i32 @Vec_IntSize(ptr noundef %26)
  %28 = call i32 (ptr, ...) @printf(ptr noundef @.str, i32 noundef %20, i32 noundef %23, i32 noundef %27)
  %29 = load ptr, ptr %2, align 8
  %30 = getelementptr inbounds %struct.Maj3_Man_t_, ptr %29, i32 0, i32 6
  %31 = load ptr, ptr %30, align 8
  call void @Vec_IntPrint(ptr noundef %31)
  %32 = call i32 (ptr, ...) @printf(ptr noundef @.str.1)
  %33 = call i32 (ptr, ...) @printf(ptr noundef @.str.2)
  store i32 0, ptr %3, align 4
  br label %34

34:                                               ; preds = %43, %1
  %35 = load i32, ptr %3, align 4
  %36 = load ptr, ptr %2, align 8
  %37 = getelementptr inbounds %struct.Maj3_Man_t_, ptr %36, i32 0, i32 2
  %38 = load i32, ptr %37, align 8
  %39 = icmp slt i32 %35, %38
  br i1 %39, label %40, label %46

40:                                               ; preds = %34
  %41 = load i32, ptr %3, align 4
  %42 = call i32 (ptr, ...) @printf(ptr noundef @.str.3, i32 noundef %41)
  br label %43

43:                                               ; preds = %40
  %44 = load i32, ptr %3, align 4
  %45 = add nsw i32 %44, 1
  store i32 %45, ptr %3, align 4
  br label %34, !llvm.loop !21

46:                                               ; preds = %34
  %47 = call i32 (ptr, ...) @printf(ptr noundef @.str.4)
  %48 = load ptr, ptr %2, align 8
  %49 = getelementptr inbounds %struct.Maj3_Man_t_, ptr %48, i32 0, i32 2
  %50 = load i32, ptr %49, align 8
  %51 = sub nsw i32 %50, 1
  store i32 %51, ptr %3, align 4
  br label %52

52:                                               ; preds = %131, %46
  %53 = load i32, ptr %3, align 4
  %54 = load ptr, ptr %2, align 8
  %55 = getelementptr inbounds %struct.Maj3_Man_t_, ptr %54, i32 0, i32 0
  %56 = load i32, ptr %55, align 8
  %57 = icmp sge i32 %53, %56
  br i1 %57, label %58, label %134

58:                                               ; preds = %52
  %59 = load i32, ptr %3, align 4
  %60 = call i32 (ptr, ...) @printf(ptr noundef @.str.5, i32 noundef %59)
  %61 = load i32, ptr %3, align 4
  %62 = sext i32 %61 to i64
  %63 = getelementptr inbounds [32 x i32], ptr %6, i64 0, i64 %62
  %64 = load i32, ptr %63, align 4
  %65 = call i32 (ptr, ...) @printf(ptr noundef @.str.6, i32 noundef %64)
  store i32 0, ptr %4, align 4
  br label %66

66:                                               ; preds = %126, %58
  %67 = load i32, ptr %4, align 4
  %68 = load ptr, ptr %2, align 8
  %69 = getelementptr inbounds %struct.Maj3_Man_t_, ptr %68, i32 0, i32 2
  %70 = load i32, ptr %69, align 8
  %71 = icmp slt i32 %67, %70
  br i1 %71, label %72, label %129

72:                                               ; preds = %66
  %73 = load ptr, ptr %2, align 8
  %74 = getelementptr inbounds %struct.Maj3_Man_t_, ptr %73, i32 0, i32 7
  %75 = load i32, ptr %3, align 4
  %76 = sext i32 %75 to i64
  %77 = getelementptr inbounds [32 x [32 x i32]], ptr %74, i64 0, i64 %76
  %78 = load i32, ptr %4, align 4
  %79 = sext i32 %78 to i64
  %80 = getelementptr inbounds [32 x i32], ptr %77, i64 0, i64 %79
  %81 = load i32, ptr %80, align 4
  %82 = icmp eq i32 %81, -1
  br i1 %82, label %83, label %85

83:                                               ; preds = %72
  %84 = call i32 (ptr, ...) @printf(ptr noundef @.str.7)
  br label %125

85:                                               ; preds = %72
  %86 = load ptr, ptr %2, align 8
  %87 = getelementptr inbounds %struct.Maj3_Man_t_, ptr %86, i32 0, i32 7
  %88 = load i32, ptr %3, align 4
  %89 = sext i32 %88 to i64
  %90 = getelementptr inbounds [32 x [32 x i32]], ptr %87, i64 0, i64 %89
  %91 = load i32, ptr %4, align 4
  %92 = sext i32 %91 to i64
  %93 = getelementptr inbounds [32 x i32], ptr %90, i64 0, i64 %92
  %94 = load i32, ptr %93, align 4
  %95 = icmp eq i32 %94, 1
  br i1 %95, label %96, label %98

96:                                               ; preds = %85
  %97 = call i32 (ptr, ...) @printf(ptr noundef @.str.8)
  br label %124

98:                                               ; preds = %85
  %99 = load ptr, ptr %2, align 8
  %100 = getelementptr inbounds %struct.Maj3_Man_t_, ptr %99, i32 0, i32 7
  %101 = load i32, ptr %3, align 4
  %102 = sext i32 %101 to i64
  %103 = getelementptr inbounds [32 x [32 x i32]], ptr %100, i64 0, i64 %102
  %104 = load i32, ptr %4, align 4
  %105 = sext i32 %104 to i64
  %106 = getelementptr inbounds [32 x i32], ptr %103, i64 0, i64 %105
  %107 = load i32, ptr %106, align 4
  %108 = load ptr, ptr %2, align 8
  %109 = getelementptr inbounds %struct.Maj3_Man_t_, ptr %108, i32 0, i32 11
  %110 = load ptr, ptr %109, align 8
  %111 = load ptr, ptr %2, align 8
  %112 = getelementptr inbounds %struct.Maj3_Man_t_, ptr %111, i32 0, i32 7
  %113 = load i32, ptr %3, align 4
  %114 = sext i32 %113 to i64
  %115 = getelementptr inbounds [32 x [32 x i32]], ptr %112, i64 0, i64 %114
  %116 = load i32, ptr %4, align 4
  %117 = sext i32 %116 to i64
  %118 = getelementptr inbounds [32 x i32], ptr %115, i64 0, i64 %117
  %119 = load i32, ptr %118, align 4
  %120 = call i32 @bmcg_sat_solver_read_cex_varvalue(ptr noundef %110, i32 noundef %119)
  %121 = icmp ne i32 %120, 0
  %122 = select i1 %121, i32 43, i32 32
  %123 = call i32 (ptr, ...) @printf(ptr noundef @.str.9, i32 noundef %107, i32 noundef %122)
  br label %124

124:                                              ; preds = %98, %96
  br label %125

125:                                              ; preds = %124, %83
  br label %126

126:                                              ; preds = %125
  %127 = load i32, ptr %4, align 4
  %128 = add nsw i32 %127, 1
  store i32 %128, ptr %4, align 4
  br label %66, !llvm.loop !22

129:                                              ; preds = %66
  %130 = call i32 (ptr, ...) @printf(ptr noundef @.str.4)
  br label %131

131:                                              ; preds = %129
  %132 = load i32, ptr %3, align 4
  %133 = add nsw i32 %132, -1
  store i32 %133, ptr %3, align 4
  br label %52, !llvm.loop !23

134:                                              ; preds = %52
  ret void
}