; Function Attrs: nounwind uwtable
define void @Maj3_ManVarMapPrint(ptr noundef readonly captures(none) %0) local_unnamed_addr #2 {
  %2 = alloca [32 x i32], align 16
  %3 = alloca [32 x i32], align 16
  %4 = getelementptr inbounds nuw i8, ptr %0, i64 32
  %5 = load ptr, ptr %4, align 8
  %6 = load i32, ptr %0, align 8
  %7 = getelementptr inbounds nuw i8, ptr %0, i64 8
  call void @Maj3_ManFirstAndLevel(ptr noundef %5, ptr noundef nonnull %2, ptr noundef nonnull %3, i32 noundef %6, i32 poison)
  %8 = load i32, ptr %0, align 8
  %9 = getelementptr inbounds nuw i8, ptr %0, i64 4
  %10 = load i32, ptr %9, align 4
  %11 = load ptr, ptr %4, align 8
  %12 = getelementptr i8, ptr %11, i64 4
  %.val = load i32, ptr %12, align 4
  %13 = tail call i32 (ptr, ...) @printf(ptr noundef nonnull dereferenceable(1) @.str, i32 noundef %8, i32 noundef %10, i32 noundef %.val)
  %14 = load ptr, ptr %4, align 8
  %15 = getelementptr i8, ptr %14, i64 4
  %.val6.i = load i32, ptr %15, align 4
  %16 = tail call i32 (ptr, ...) @printf(ptr noundef nonnull dereferenceable(1) @.str.44, i32 noundef %.val6.i)
  %.val8.i = load i32, ptr %15, align 4
  %17 = icmp sgt i32 %.val8.i, 0
  br i1 %17, label %.lr.ph.i, label %Vec_IntPrint.exit

.lr.ph.i:                                         ; preds = %1
  %18 = getelementptr i8, ptr %14, i64 8
  br label %19

19:                                               ; preds = %19, %.lr.ph.i
  %indvars.iv.i = phi i64 [ 0, %.lr.ph.i ], [ %indvars.iv.next.i, %19 ]
  %.val7.i = load ptr, ptr %18, align 8
  %20 = getelementptr inbounds nuw i32, ptr %.val7.i, i64 %indvars.iv.i
  %21 = load i32, ptr %20, align 4
  %22 = tail call i32 (ptr, ...) @printf(ptr noundef nonnull dereferenceable(1) @.str.45, i32 noundef %21)
  %indvars.iv.next.i = add nuw nsw i64 %indvars.iv.i, 1
  %.val.i = load i32, ptr %15, align 4
  %23 = sext i32 %.val.i to i64
  %24 = icmp slt i64 %indvars.iv.next.i, %23
  br i1 %24, label %19, label %Vec_IntPrint.exit, !llvm.loop !19

Vec_IntPrint.exit:                                ; preds = %19, %1
  %puts.i = tail call i32 @puts(ptr nonnull dereferenceable(1) @str)
  %25 = tail call i32 (ptr, ...) @printf(ptr noundef nonnull dereferenceable(1) @.str.1)
  %26 = tail call i32 (ptr, ...) @printf(ptr noundef nonnull dereferenceable(1) @.str.2)
  %27 = load i32, ptr %7, align 8
  %28 = icmp sgt i32 %27, 0
  br i1 %28, label %.lr.ph, label %._crit_edge

.lr.ph:                                           ; preds = %Vec_IntPrint.exit, %.lr.ph
  %.03235 = phi i32 [ %30, %.lr.ph ], [ 0, %Vec_IntPrint.exit ]
  %29 = tail call i32 (ptr, ...) @printf(ptr noundef nonnull dereferenceable(1) @.str.3, i32 noundef %.03235)
  %30 = add nuw nsw i32 %.03235, 1
  %31 = load i32, ptr %7, align 8
  %32 = icmp slt i32 %30, %31
  br i1 %32, label %.lr.ph, label %._crit_edge, !llvm.loop !20

._crit_edge:                                      ; preds = %.lr.ph, %Vec_IntPrint.exit
  %putchar = tail call i32 @putchar(i32 10)
  %33 = load i32, ptr %7, align 8
  %34 = load i32, ptr %0, align 8
  %.not.not41 = icmp sgt i32 %33, %34
  br i1 %.not.not41, label %.lr.ph44, label %._crit_edge45

.lr.ph44:                                         ; preds = %._crit_edge
  %35 = getelementptr inbounds nuw i8, ptr %0, i64 40
  %36 = getelementptr inbounds nuw i8, ptr %0, i64 4536
  %37 = sext i32 %33 to i64
  br label %38

38:                                               ; preds = %.lr.ph44, %._crit_edge39
  %indvars.iv47 = phi i64 [ %37, %.lr.ph44 ], [ %indvars.iv.next48, %._crit_edge39 ]
  %indvars.iv.next48 = add nsw i64 %indvars.iv47, -1
  %39 = trunc nsw i64 %indvars.iv.next48 to i32
  %40 = tail call i32 (ptr, ...) @printf(ptr noundef nonnull dereferenceable(1) @.str.5, i32 noundef %39)
  %41 = getelementptr inbounds [32 x i32], ptr %3, i64 0, i64 %indvars.iv.next48
  %42 = load i32, ptr %41, align 4
  %43 = tail call i32 (ptr, ...) @printf(ptr noundef nonnull dereferenceable(1) @.str.6, i32 noundef %42)
  %44 = load i32, ptr %7, align 8
  %45 = icmp sgt i32 %44, 0
  br i1 %45, label %.lr.ph38, label %._crit_edge39

.lr.ph38:                                         ; preds = %38, %57
  %indvars.iv = phi i64 [ %indvars.iv.next, %57 ], [ 0, %38 ]
  %46 = getelementptr inbounds [32 x [32 x i32]], ptr %35, i64 0, i64 %indvars.iv.next48, i64 %indvars.iv
  %47 = load i32, ptr %46, align 4
  switch i32 %47, label %52 [
    i32 -1, label %48
    i32 1, label %50
  ]

48:                                               ; preds = %.lr.ph38
  %49 = tail call i32 (ptr, ...) @printf(ptr noundef nonnull dereferenceable(1) @.str.7)
  br label %57

50:                                               ; preds = %.lr.ph38
  %51 = tail call i32 (ptr, ...) @printf(ptr noundef nonnull dereferenceable(1) @.str.8)
  br label %57

52:                                               ; preds = %.lr.ph38
  %53 = load ptr, ptr %36, align 8
  %54 = tail call i32 @bmcg_sat_solver_read_cex_varvalue(ptr noundef %53, i32 noundef %47) #22
  %.not = icmp eq i32 %54, 0
  %55 = select i1 %.not, i32 32, i32 43
  %56 = tail call i32 (ptr, ...) @printf(ptr noundef nonnull dereferenceable(1) @.str.9, i32 noundef %47, i32 noundef %55)
  br label %57

57:                                               ; preds = %48, %52, %50
  %indvars.iv.next = add nuw nsw i64 %indvars.iv, 1
  %58 = load i32, ptr %7, align 8
  %59 = sext i32 %58 to i64
  %60 = icmp slt i64 %indvars.iv.next, %59
  br i1 %60, label %.lr.ph38, label %._crit_edge39, !llvm.loop !21

._crit_edge39:                                    ; preds = %57, %38
  %putchar34 = tail call i32 @putchar(i32 10)
  %61 = load i32, ptr %0, align 8
  %62 = sext i32 %61 to i64
  %.not.not = icmp sgt i64 %indvars.iv.next48, %62
  br i1 %.not.not, label %38, label %._crit_edge45, !llvm.loop !22

._crit_edge45:                                    ; preds = %._crit_edge39, %._crit_edge
  ret void
}